target datalayout = "e-m:e-p270:32:32-p271:32:32-p272:64:64-i64:64-i128:128-f80:128-n8:16:32:64-S128"
target triple = "x86_64-pc-linux-gnu"

%struct.PJconsts = type { ptr, ptr, ptr, ptr, ptr, ptr, ptr, ptr, ptr, ptr, ptr, ptr, i32, ptr, ptr, ptr, ptr, ptr, ptr, ptr, ptr, double, double, double, double, double, double, double, double, double, double, double, double, double, double, double, double, double, double, double, double, double, double, i32, i32, i32, i32, i32, i32, i32, i32, i32, i32, i32, ptr, ptr, ptr, ptr, ptr, ptr, double, double, double, double, double, double, double, double, double, double, double, i32, [7 x double], i32, ptr, ptr, double, double, i32, [4 x i8], %"class.std::shared_ptr", i8, double, i8, %"class.std::__cxx11::basic_string", %"class.std::__cxx11::basic_string", %"class.std::__cxx11::basic_string", i8, %"class.std::vector", i32, %"class.std::vector.3", i32, i8, i8, i8, ptr }
%"class.std::shared_ptr" = type { %"class.std::__shared_ptr" }
%"class.std::__shared_ptr" = type { ptr, %"class.std::__shared_count" }
%"class.std::__shared_count" = type { ptr }
%"class.std::__cxx11::basic_string" = type { %"struct.std::__cxx11::basic_string<char>::_Alloc_hider", i64, %union.anon }
%"struct.std::__cxx11::basic_string<char>::_Alloc_hider" = type { ptr }
%union.anon = type { i64, [8 x i8] }
%"class.std::vector" = type { %"struct.std::_Vector_base" }
%"struct.std::_Vector_base" = type { %"struct.std::_Vector_base<osgeo::proj::operation::GridDescription, std::allocator<osgeo::proj::operation::GridDescription>>::_Vector_impl" }
%"struct.std::_Vector_base<osgeo::proj::operation::GridDescription, std::allocator<osgeo::proj::operation::GridDescription>>::_Vector_impl" = type { %"struct.std::_Vector_base<osgeo::proj::operation::GridDescription, std::allocator<osgeo::proj::operation::GridDescription>>::_Vector_impl_data" }
%"struct.std::_Vector_base<osgeo::proj::operation::GridDescription, std::allocator<osgeo::proj::operation::GridDescription>>::_Vector_impl_data" = type { ptr, ptr, ptr }
%"class.std::vector.3" = type { %"struct.std::_Vector_base.4" }
%"struct.std::_Vector_base.4" = type { %"struct.std::_Vector_base<PJCoordOperation, std::allocator<PJCoordOperation>>::_Vector_impl" }
%"struct.std::_Vector_base<PJCoordOperation, std::allocator<PJCoordOperation>>::_Vector_impl" = type { %"struct.std::_Vector_base<PJCoordOperation, std::allocator<PJCoordOperation>>::_Vector_impl_data" }
%"struct.std::_Vector_base<PJCoordOperation, std::allocator<PJCoordOperation>>::_Vector_impl_data" = type { ptr, ptr, ptr }
%union.PROJVALUE = type { double }
%"struct.(anonymous namespace)::pj_healpix_data" = type { i32, i32, double, double, ptr }

@.str.1 = private unnamed_addr constant [8 x i8] c"drot_xy\00", align 1

; Function Attrs: mustprogress uwtable
define internal noundef ptr @_ZL26pj_healpix_data_destructorP8PJconstsi(ptr noundef %0, i32 noundef %1) #0 {
  %3 = alloca ptr, align 8
  %4 = alloca ptr, align 8
  %5 = alloca i32, align 4
  store ptr %0, ptr %4, align 8, !tbaa !3
  store i32 %1, ptr %5, align 4, !tbaa !58
  %6 = load ptr, ptr %4, align 8, !tbaa !3
  %7 = icmp eq ptr null, %6
  br i1 %7, label %8, label %9

8:                                                ; preds = %2
  store ptr null, ptr %3, align 8
  br label %27

9:                                                ; preds = %2
  %10 = load ptr, ptr %4, align 8, !tbaa !3
  %11 = getelementptr inbounds nuw %struct.PJconsts, ptr %10, i32 0, i32 11
  %12 = load ptr, ptr %11, align 8, !tbaa !43
  %13 = icmp eq ptr null, %12
  br i1 %13, label %14, label %18

14:                                               ; preds = %9
  %15 = load ptr, ptr %4, align 8, !tbaa !3
  %16 = load i32, ptr %5, align 4, !tbaa !58
  %17 = call noundef ptr @_Z21pj_default_destructorP8PJconstsi(ptr noundef %15, i32 noundef %16)
  store ptr %17, ptr %3, align 8
  br label %27

18:                                               ; preds = %9
  %19 = load ptr, ptr %4, align 8, !tbaa !3
  %20 = getelementptr inbounds nuw %struct.PJconsts, ptr %19, i32 0, i32 11
  %21 = load ptr, ptr %20, align 8, !tbaa !43
  %22 = getelementptr inbounds nuw %"struct.(anonymous namespace)::pj_healpix_data", ptr %21, i32 0, i32 4
  %23 = load ptr, ptr %22, align 8, !tbaa !53
  call void @free(ptr noundef %23) #10
  %24 = load ptr, ptr %4, align 8, !tbaa !3
  %25 = load i32, ptr %5, align 4, !tbaa !58
  %26 = call noundef ptr @_Z21pj_default_destructorP8PJconstsi(ptr noundef %24, i32 noundef %25)
  store ptr %26, ptr %3, align 8
  br label %27

27:                                               ; preds = %18, %14, %8
  %28 = load ptr, ptr %3, align 8
  ret ptr %28
}

; Function Attrs: mustprogress uwtable
define hidden noundef ptr @_Z36pj_projection_specific_setup_healpixP8PJconsts(ptr noundef %0) #0 {
  %2 = alloca ptr, align 8
  %3 = alloca ptr, align 8
  %4 = alloca ptr, align 8
  %5 = alloca i32, align 4
  %6 = alloca double, align 8
  %7 = alloca %union.PROJVALUE, align 8
  store ptr %0, ptr %3, align 8, !tbaa !3
  call void @llvm.lifetime.start.p0(i64 8, ptr %4) #10
  %8 = call noalias ptr @calloc(i64 noundef 1, i64 noundef 32) #11
  store ptr %8, ptr %4, align 8, !tbaa !41
  %9 = load ptr, ptr %4, align 8, !tbaa !41
  %10 = icmp eq ptr null, %9
  br i1 %10, label %11, label %14

11:                                               ; preds = %1
  %12 = load ptr, ptr %3, align 8, !tbaa !3
  %13 = call noundef ptr @_Z21pj_default_destructorP8PJconstsi(ptr noundef %12, i32 noundef 4096)
  store ptr %13, ptr %2, align 8
  store i32 1, ptr %5, align 4
  br label %93

14:                                               ; preds = %1
  %15 = load ptr, ptr %4, align 8, !tbaa !41
  %16 = load ptr, ptr %3, align 8, !tbaa !3
  %17 = getelementptr inbounds nuw %struct.PJconsts, ptr %16, i32 0, i32 11
  store ptr %15, ptr %17, align 8, !tbaa !43
  %18 = load ptr, ptr %3, align 8, !tbaa !3
  %19 = getelementptr inbounds nuw %struct.PJconsts, ptr %18, i32 0, i32 19
  store ptr @_ZL26pj_healpix_data_destructorP8PJconstsi, ptr %19, align 8, !tbaa !44
  call void @llvm.lifetime.start.p0(i64 8, ptr %6) #10
  call void @llvm.lifetime.start.p0(i64 8, ptr %7) #10
  %20 = load ptr, ptr %3, align 8, !tbaa !3
  %21 = getelementptr inbounds nuw %struct.PJconsts, ptr %20, i32 0, i32 0
  %22 = load ptr, ptr %21, align 8, !tbaa !45
  %23 = load ptr, ptr %3, align 8, !tbaa !3
  %24 = getelementptr inbounds nuw %struct.PJconsts, ptr %23, i32 0, i32 3
  %25 = load ptr, ptr %24, align 8, !tbaa !46
  %26 = call i64 @_Z8pj_paramP6pj_ctxP8ARG_listPKc(ptr noundef %22, ptr noundef %25, ptr noundef @.str.1)
  %27 = getelementptr inbounds nuw %union.PROJVALUE, ptr %7, i32 0, i32 0
  store i64 %26, ptr %27, align 8
  %28 = load double, ptr %7, align 8, !tbaa !47
  call void @llvm.lifetime.end.p0(i64 8, ptr %7) #10
  store double %28, ptr %6, align 8, !tbaa !48
  %29 = load double, ptr %6, align 8, !tbaa !48
  %30 = fmul double %29, 0x400921FB54442D18
  %31 = fdiv double %30, 1.800000e+02
  %32 = load ptr, ptr %4, align 8, !tbaa !41
  %33 = getelementptr inbounds nuw %"struct.(anonymous namespace)::pj_healpix_data", ptr %32, i32 0, i32 2
  store double %31, ptr %33, align 8, !tbaa !49
  %34 = load ptr, ptr %3, align 8, !tbaa !3
  %35 = getelementptr inbounds nuw %struct.PJconsts, ptr %34, i32 0, i32 27
  %36 = load double, ptr %35, align 8, !tbaa !52
  %37 = fcmp une double %36, 0.000000e+00
  br i1 %37, label %38, label %85

38:                                               ; preds = %14
  %39 = load ptr, ptr %3, align 8, !tbaa !3
  %40 = getelementptr inbounds nuw %struct.PJconsts, ptr %39, i32 0, i32 27
  %41 = load double, ptr %40, align 8, !tbaa !52
  %42 = call noundef ptr @_Z10pj_authsetd(double noundef %41)
  %43 = load ptr, ptr %4, align 8, !tbaa !41
  %44 = getelementptr inbounds nuw %"struct.(anonymous namespace)::pj_healpix_data", ptr %43, i32 0, i32 4
  store ptr %42, ptr %44, align 8, !tbaa !53
  %45 = load ptr, ptr %4, align 8, !tbaa !41
  %46 = getelementptr inbounds nuw %"struct.(anonymous namespace)::pj_healpix_data", ptr %45, i32 0, i32 4
  %47 = load ptr, ptr %46, align 8, !tbaa !53
  %48 = icmp eq ptr null, %47
  br i1 %48, label %49, label %52

49:                                               ; preds = %38
  %50 = load ptr, ptr %3, align 8, !tbaa !3
  %51 = call noundef ptr @_ZL26pj_healpix_data_destructorP8PJconstsi(ptr noundef %50, i32 noundef 4096)
  store ptr %51, ptr %2, align 8
  store i32 1, ptr %5, align 4
  br label %92

52:                                               ; preds = %38
  %53 = load ptr, ptr %3, align 8, !tbaa !3
  %54 = getelementptr inbounds nuw %struct.PJconsts, ptr %53, i32 0, i32 26
  %55 = load double, ptr %54, align 8, !tbaa !54
  %56 = load ptr, ptr %3, align 8, !tbaa !3
  %57 = getelementptr inbounds nuw %struct.PJconsts, ptr %56, i32 0, i32 32
  %58 = load double, ptr %57, align 8, !tbaa !55
  %59 = call noundef double @_Z7pj_qsfnddd(double noundef 1.000000e+00, double noundef %55, double noundef %58)
  %60 = load ptr, ptr %4, align 8, !tbaa !41
  %61 = getelementptr inbounds nuw %"struct.(anonymous namespace)::pj_healpix_data", ptr %60, i32 0, i32 3
  store double %59, ptr %61, align 8, !tbaa !56
  %62 = load ptr, ptr %3, align 8, !tbaa !3
  %63 = getelementptr inbounds nuw %struct.PJconsts, ptr %62, i32 0, i32 21
  %64 = load double, ptr %63, align 8, !tbaa !57
  %65 = load ptr, ptr %4, align 8, !tbaa !41
  %66 = getelementptr inbounds nuw %"struct.(anonymous namespace)::pj_healpix_data", ptr %65, i32 0, i32 3
  %67 = load double, ptr %66, align 8, !tbaa !56
  %68 = fmul double 5.000000e-01, %67
  %69 = call double @sqrt(double noundef %68) #10, !tbaa !58
  %70 = fmul double %64, %69
  %71 = load ptr, ptr %3, align 8, !tbaa !3
  %72 = getelementptr inbounds nuw %struct.PJconsts, ptr %71, i32 0, i32 21
  store double %70, ptr %72, align 8, !tbaa !57
  %73 = load ptr, ptr %3, align 8, !tbaa !3
  %74 = load ptr, ptr %3, align 8, !tbaa !3
  %75 = getelementptr inbounds nuw %struct.PJconsts, ptr %74, i32 0, i32 21
  %76 = load double, ptr %75, align 8, !tbaa !57
  %77 = load ptr, ptr %3, align 8, !tbaa !3
  %78 = getelementptr inbounds nuw %struct.PJconsts, ptr %77, i32 0, i32 27
  %79 = load double, ptr %78, align 8, !tbaa !52
  %80 = call noundef i32 @_Z24pj_calc_ellipsoid_paramsP8PJconstsdd(ptr noundef %73, double noundef %76, double noundef %79)
  %81 = load ptr, ptr %3, align 8, !tbaa !3
  %82 = getelementptr inbounds nuw %struct.PJconsts, ptr %81, i32 0, i32 13
  store ptr @_ZL17e_healpix_forward5PJ_LPP8PJconsts, ptr %82, align 8, !tbaa !59
  %83 = load ptr, ptr %3, align 8, !tbaa !3
  %84 = getelementptr inbounds nuw %struct.PJconsts, ptr %83, i32 0, i32 14
  store ptr @_ZL17e_healpix_inverse5PJ_XYP8PJconsts, ptr %84, align 8, !tbaa !60
  br label %90

85:                                               ; preds = %14
  %86 = load ptr, ptr %3, align 8, !tbaa !3
  %87 = getelementptr inbounds nuw %struct.PJconsts, ptr %86, i32 0, i32 13
  store ptr @_ZL17s_healpix_forward5PJ_LPP8PJconsts, ptr %87, align 8, !tbaa !59
  %88 = load ptr, ptr %3, align 8, !tbaa !3
  %89 = getelementptr inbounds nuw %struct.PJconsts, ptr %88, i32 0, i32 14
  store ptr @_ZL17s_healpix_inverse5PJ_XYP8PJconsts, ptr %89, align 8, !tbaa !60
  br label %90

90:                                               ; preds = %85, %52
  %91 = load ptr, ptr %3, align 8, !tbaa !3
  store ptr %91, ptr %2, align 8
  store i32 1, ptr %5, align 4
  br label %92

92:                                               ; preds = %90, %49
  call void @llvm.lifetime.end.p0(i64 8, ptr %6) #10
  br label %93

93:                                               ; preds = %92, %11
  call void @llvm.lifetime.end.p0(i64 8, ptr %4) #10
  %94 = load ptr, ptr %2, align 8
  ret ptr %94
}