; Function Attrs: mustprogress uwtable
define hidden noundef ptr @_Z36pj_projection_specific_setup_healpixP8PJconsts(ptr noundef %0) local_unnamed_addr #0 {
  %2 = tail call noalias dereferenceable_or_null(32) ptr @calloc(i64 noundef 1, i64 noundef 32) #10
  %3 = icmp eq ptr %2, null
  br i1 %3, label %4, label %6

4:                                                ; preds = %1
  %5 = tail call noundef ptr @_Z21pj_default_destructorP8PJconstsi(ptr noundef %0, i32 noundef 4096)
  br label %50

6:                                                ; preds = %1
  %7 = getelementptr inbounds nuw i8, ptr %0, i64 88
  store ptr %2, ptr %7, align 8, !tbaa !40
  %8 = getelementptr inbounds nuw i8, ptr %0, i64 152
  store ptr @_ZL26pj_healpix_data_destructorP8PJconstsi, ptr %8, align 8, !tbaa !41
  %9 = load ptr, ptr %0, align 8, !tbaa !42
  %10 = getelementptr inbounds nuw i8, ptr %0, i64 24
  %11 = load ptr, ptr %10, align 8, !tbaa !43
  %12 = tail call i64 @_Z8pj_paramP6pj_ctxP8ARG_listPKc(ptr noundef %9, ptr noundef %11, ptr noundef nonnull @.str.1)
  %13 = bitcast i64 %12 to double
  %14 = fmul double %13, 0x400921FB54442D18
  %15 = fdiv double %14, 1.800000e+02
  %16 = getelementptr inbounds nuw i8, ptr %2, i64 8
  store double %15, ptr %16, align 8, !tbaa !44
  %17 = getelementptr inbounds nuw i8, ptr %0, i64 216
  %18 = load double, ptr %17, align 8, !tbaa !47
  %19 = fcmp une double %18, 0.000000e+00
  br i1 %19, label %20, label %47

20:                                               ; preds = %6
  %21 = tail call noundef ptr @_Z10pj_authsetd(double noundef %18)
  %22 = getelementptr inbounds nuw i8, ptr %2, i64 24
  store ptr %21, ptr %22, align 8, !tbaa !48
  %23 = icmp eq ptr %21, null
  br i1 %23, label %24, label %31

24:                                               ; preds = %20
  %25 = load ptr, ptr %7, align 8, !tbaa !40
  %26 = icmp eq ptr %25, null
  br i1 %26, label %_ZL26pj_healpix_data_destructorP8PJconstsi.exit, label %27

27:                                               ; preds = %24
  %28 = getelementptr inbounds nuw i8, ptr %25, i64 24
  %29 = load ptr, ptr %28, align 8, !tbaa !48
  tail call void @free(ptr noundef %29) #11
  br label %_ZL26pj_healpix_data_destructorP8PJconstsi.exit

_ZL26pj_healpix_data_destructorP8PJconstsi.exit:  ; preds = %24, %27
  %30 = tail call noundef ptr @_Z21pj_default_destructorP8PJconstsi(ptr noundef nonnull %0, i32 noundef 4096)
  br label %50

31:                                               ; preds = %20
  %32 = getelementptr inbounds nuw i8, ptr %0, i64 208
  %33 = load double, ptr %32, align 8, !tbaa !49
  %34 = getelementptr inbounds nuw i8, ptr %0, i64 256
  %35 = load double, ptr %34, align 8, !tbaa !50
  %36 = tail call noundef double @_Z7pj_qsfnddd(double noundef 1.000000e+00, double noundef %33, double noundef %35)
  %37 = getelementptr inbounds nuw i8, ptr %2, i64 16
  store double %36, ptr %37, align 8, !tbaa !51
  %38 = getelementptr inbounds nuw i8, ptr %0, i64 168
  %39 = load double, ptr %38, align 8, !tbaa !52
  %40 = fmul double %36, 5.000000e-01
  %41 = tail call double @sqrt(double noundef %40) #11, !tbaa !53
  %42 = fmul double %39, %41
  store double %42, ptr %38, align 8, !tbaa !52
  %43 = load double, ptr %17, align 8, !tbaa !47
  %44 = tail call noundef i32 @_Z24pj_calc_ellipsoid_paramsP8PJconstsdd(ptr noundef nonnull %0, double noundef %42, double noundef %43)
  %45 = getelementptr inbounds nuw i8, ptr %0, i64 104
  store ptr @_ZL17e_healpix_forward5PJ_LPP8PJconsts, ptr %45, align 8, !tbaa !54
  %46 = getelementptr inbounds nuw i8, ptr %0, i64 112
  store ptr @_ZL17e_healpix_inverse5PJ_XYP8PJconsts, ptr %46, align 8, !tbaa !55
  br label %50

47:                                               ; preds = %6
  %48 = getelementptr inbounds nuw i8, ptr %0, i64 104
  store ptr @_ZL17s_healpix_forward5PJ_LPP8PJconsts, ptr %48, align 8, !tbaa !54
  %49 = getelementptr inbounds nuw i8, ptr %0, i64 112
  store ptr @_ZL17s_healpix_inverse5PJ_XYP8PJconsts, ptr %49, align 8, !tbaa !55
  br label %50

50:                                               ; preds = %_ZL26pj_healpix_data_destructorP8PJconstsi.exit, %47, %31, %4
  %.0 = phi ptr [ %5, %4 ], [ %30, %_ZL26pj_healpix_data_destructorP8PJconstsi.exit ], [ %0, %47 ], [ %0, %31 ]
  ret ptr %.0
}